; Function Attrs: nounwind uwtable
define internal fastcc void @RelationParseRelOptions(ptr noundef captures(none) initializes((304, 312)) %0, ptr noundef nonnull %1) unnamed_addr #0 {
  %3 = getelementptr inbounds nuw i8, ptr %0, i64 304
  store ptr null, ptr %3, align 8
  %4 = getelementptr inbounds nuw i8, ptr %0, i64 56
  %5 = load ptr, ptr %4, align 8
  %6 = getelementptr inbounds nuw i8, ptr %5, i64 115
  %7 = load i8, ptr %6, align 1
  switch i8 %7, label %40 [
    i8 114, label %13
    i8 116, label %13
    i8 118, label %13
    i8 109, label %13
    i8 112, label %13
    i8 105, label %8
    i8 73, label %8
  ]

8:                                                ; preds = %2, %2
  %9 = getelementptr inbounds nuw i8, ptr %0, i64 352
  %10 = load ptr, ptr %9, align 8
  %11 = getelementptr inbounds nuw i8, ptr %10, i64 104
  %12 = load ptr, ptr %11, align 8
  br label %13

13:                                               ; preds = %2, %2, %2, %2, %2, %8
  %.0 = phi ptr [ %12, %8 ], [ null, %2 ], [ null, %2 ], [ null, %2 ], [ null, %2 ], [ null, %2 ]
  %14 = load ptr, ptr @GetPgClassDescriptor.pgclassdesc, align 8
  %15 = icmp eq ptr %14, null
  br i1 %15, label %16, label %GetPgClassDescriptor.exit

16:                                               ; preds = %13
  %17 = load ptr, ptr @CacheMemoryContext, align 8
  %18 = load ptr, ptr @CurrentMemoryContext, align 8
  store ptr %17, ptr @CurrentMemoryContext, align 8
  %19 = tail call ptr @CreateTemplateTupleDesc(i32 noundef 33) #13
  %20 = getelementptr inbounds nuw i8, ptr %19, i64 4
  store i32 2249, ptr %20, align 4
  %21 = getelementptr inbounds nuw i8, ptr %19, i64 8
  store i32 -1, ptr %21, align 8
  %invariant.gep.i.i = getelementptr i8, ptr %19, i64 24
  br label %22

22:                                               ; preds = %22, %16
  %indvars.iv.i.i = phi i64 [ 0, %16 ], [ %indvars.iv.next.i.i, %22 ]
  %23 = load i32, ptr %19, align 8
  %24 = sext i32 %23 to i64
  %25 = shl nsw i64 %24, 4
  %gep.i.i = getelementptr i8, ptr %invariant.gep.i.i, i64 %25
  %26 = getelementptr inbounds nuw %struct.FormData_pg_attribute, ptr %gep.i.i, i64 %indvars.iv.i.i
  %27 = getelementptr inbounds nuw %struct.FormData_pg_attribute, ptr @Desc_pg_class, i64 %indvars.iv.i.i
  tail call void @llvm.memcpy.p0.p0.i64(ptr noundef nonnull align 4 dereferenceable(100) %26, ptr noundef nonnull readonly align 4 dereferenceable(100) %27, i64 100, i1 false)
  %28 = trunc nuw nsw i64 %indvars.iv.i.i to i32
  tail call void @populate_compact_attribute(ptr noundef nonnull %19, i32 noundef %28) #13
  %indvars.iv.next.i.i = add nuw nsw i64 %indvars.iv.i.i, 1
  %exitcond.not.i.i = icmp eq i64 %indvars.iv.next.i.i, 33
  br i1 %exitcond.not.i.i, label %BuildHardcodedDescriptor.exit.i, label %22, !llvm.loop !4

BuildHardcodedDescriptor.exit.i:                  ; preds = %22
  store i32 0, ptr %invariant.gep.i.i, align 4
  store ptr %18, ptr @CurrentMemoryContext, align 8
  store ptr %19, ptr @GetPgClassDescriptor.pgclassdesc, align 8
  br label %GetPgClassDescriptor.exit

GetPgClassDescriptor.exit:                        ; preds = %13, %BuildHardcodedDescriptor.exit.i
  %29 = phi ptr [ %19, %BuildHardcodedDescriptor.exit.i ], [ %14, %13 ]
  %30 = tail call ptr @extractRelOptions(ptr noundef nonnull %1, ptr noundef nonnull %29, ptr noundef %.0) #13
  %.not = icmp eq ptr %30, null
  br i1 %.not, label %40, label %31

31:                                               ; preds = %GetPgClassDescriptor.exit
  %32 = load ptr, ptr @CacheMemoryContext, align 8
  %33 = load i32, ptr %30, align 4
  %34 = lshr i32 %33, 2
  %35 = zext nneg i32 %34 to i64
  %36 = tail call ptr @MemoryContextAlloc(ptr noundef %32, i64 noundef %35) #13
  store ptr %36, ptr %3, align 8
  %37 = load i32, ptr %30, align 4
  %38 = lshr i32 %37, 2
  %39 = zext nneg i32 %38 to i64
  tail call void @llvm.memcpy.p0.p0.i64(ptr align 1 %36, ptr nonnull align 1 %30, i64 %39, i1 false)
  tail call void @pfree(ptr noundef nonnull %30) #13
  br label %40

40:                                               ; preds = %GetPgClassDescriptor.exit, %31, %2
  ret void
}